ARM GAS  /tmp/ccTeb35c.s 			page 1


   1              		.syntax unified
   2              		.cpu cortex-m3
   3              		.fpu softvfp
   4              		.eabi_attribute 20, 1
   5              		.eabi_attribute 21, 1
   6              		.eabi_attribute 23, 3
   7              		.eabi_attribute 24, 1
   8              		.eabi_attribute 25, 1
   9              		.eabi_attribute 26, 1
  10              		.eabi_attribute 30, 6
  11              		.eabi_attribute 34, 1
  12              		.eabi_attribute 18, 4
  13              		.thumb
  14              		.file	"main.c"
  15              		.text
  16              	.Ltext0:
  17              		.cfi_sections	.debug_frame
  18              		.global	click0
  19              		.section	.data.click0,"aw",%progbits
  22              	click0:
  23 0000 01       		.byte	1
  24              		.global	k
  25              		.section	.data.k,"aw",%progbits
  28              	k:
  29 0000 01       		.byte	1
  30              		.global	ticks_delay
  31              		.section	.bss.ticks_delay,"aw",%nobits
  32              		.align	2
  35              	ticks_delay:
  36 0000 00000000 		.space	4
  37              		.global	flag_Rx
  38              		.section	.data.flag_Rx,"aw",%progbits
  41              	flag_Rx:
  42 0000 01       		.byte	1
  43              		.global	flag_Tx
  44              		.section	.data.flag_Tx,"aw",%progbits
  47              	flag_Tx:
  48 0000 01       		.byte	1
  49              		.global	data
  50              		.section	.data.data,"aw",%progbits
  53              	data:
  54 0000 01       		.byte	1
  55              		.comm	huart1,64,4
  56              		.comm	hdma_usart1_tx,68,4
  57              		.comm	hdma_usart1_rx,68,4
  58              		.section	.rodata
  59              		.align	2
  60              	.LC0:
  61 0000 48656C6C 		.ascii	"Hello\000"
  61      6F00
  62              		.section	.text.main,"ax",%progbits
  63              		.align	2
  64              		.global	main
  65              		.thumb
  66              		.thumb_func
  68              	main:
  69              	.LFB63:
ARM GAS  /tmp/ccTeb35c.s 			page 2


  70              		.file 1 "Src/main.c"
   1:Src/main.c    **** 
   2:Src/main.c    **** /* Defined -------------------------------------------------------------------*/
   3:Src/main.c    **** 
   4:Src/main.c    **** 
   5:Src/main.c    **** /* Includes ------------------------------------------------------------------*/
   6:Src/main.c    **** #include "main.h"
   7:Src/main.c    **** #include "stm32f1xx_hal.h"
   8:Src/main.c    **** #include "stm32f1xx_it.h"
   9:Src/main.c    **** 
  10:Src/main.c    **** /* Private variables ---------------------------------------------------------*/
  11:Src/main.c    **** char click0=1, k=1;
  12:Src/main.c    **** volatile uint32_t ticks_delay = 0;
  13:Src/main.c    **** volatile uint8_t flag_Rx = 1, flag_Tx = 1;
  14:Src/main.c    **** volatile uint8_t data = 1;
  15:Src/main.c    **** UART_HandleTypeDef huart1;
  16:Src/main.c    **** DMA_HandleTypeDef hdma_usart1_tx;
  17:Src/main.c    **** DMA_HandleTypeDef hdma_usart1_rx;
  18:Src/main.c    **** 
  19:Src/main.c    **** /* Private function prototypes -----------------------------------------------*/
  20:Src/main.c    **** void SystemClock_Config(void);
  21:Src/main.c    **** static void MX_GPIO_Init(void);
  22:Src/main.c    **** static void MX_DMA_Init(void);
  23:Src/main.c    **** static void MX_USART1_UART_Init(void);
  24:Src/main.c    **** void Delay2(uint32_t t);
  25:Src/main.c    **** void delay_ms(uint32_t milliseconds);
  26:Src/main.c    **** 
  27:Src/main.c    **** int main(void)
  28:Src/main.c    **** {
  71              		.loc 1 28 0
  72              		.cfi_startproc
  73              		@ args = 0, pretend = 0, frame = 8
  74              		@ frame_needed = 1, uses_anonymous_args = 0
  75 0000 80B5     		push	{r7, lr}
  76              	.LCFI0:
  77              		.cfi_def_cfa_offset 8
  78              		.cfi_offset 7, -8
  79              		.cfi_offset 14, -4
  80 0002 82B0     		sub	sp, sp, #8
  81              	.LCFI1:
  82              		.cfi_def_cfa_offset 16
  83 0004 00AF     		add	r7, sp, #0
  84              	.LCFI2:
  85              		.cfi_def_cfa_register 7
  29:Src/main.c    **** 
  30:Src/main.c    **** 	uint8_t str[] = "Hello";
  86              		.loc 1 30 0
  87 0006 154A     		ldr	r2, .L4
  88 0008 3B46     		mov	r3, r7
  89 000a 92E80300 		ldmia	r2, {r0, r1}
  90 000e 1860     		str	r0, [r3]
  91 0010 0433     		adds	r3, r3, #4
  92 0012 1980     		strh	r1, [r3]	@ movhi
  31:Src/main.c    **** 
  32:Src/main.c    **** 	// Initialization
  33:Src/main.c    **** 	HAL_Init();
  93              		.loc 1 33 0
ARM GAS  /tmp/ccTeb35c.s 			page 3


  94 0014 FFF7FEFF 		bl	HAL_Init
  34:Src/main.c    **** 	SystemClock_Config();
  95              		.loc 1 34 0
  96 0018 FFF7FEFF 		bl	SystemClock_Config
  35:Src/main.c    **** 	MX_GPIO_Init();
  97              		.loc 1 35 0
  98 001c FFF7FEFF 		bl	MX_GPIO_Init
  36:Src/main.c    **** 	MX_DMA_Init();
  99              		.loc 1 36 0
 100 0020 FFF7FEFF 		bl	MX_DMA_Init
  37:Src/main.c    **** 	MX_USART1_UART_Init();
 101              		.loc 1 37 0
 102 0024 FFF7FEFF 		bl	MX_USART1_UART_Init
  38:Src/main.c    **** 
  39:Src/main.c    **** 	HAL_UART_Transmit_DMA(&huart1, &data, 1);
 103              		.loc 1 39 0
 104 0028 0D48     		ldr	r0, .L4+4
 105 002a 0E49     		ldr	r1, .L4+8
 106 002c 0122     		movs	r2, #1
 107 002e FFF7FEFF 		bl	HAL_UART_Transmit_DMA
  40:Src/main.c    **** 	HAL_UART_Receive_DMA(&huart1, &data, 1);
 108              		.loc 1 40 0
 109 0032 0B48     		ldr	r0, .L4+4
 110 0034 0B49     		ldr	r1, .L4+8
 111 0036 0122     		movs	r2, #1
 112 0038 FFF7FEFF 		bl	HAL_UART_Receive_DMA
 113              	.L3:
  41:Src/main.c    **** 	// For SysTick
  42:Src/main.c    **** 	// SysTick
  43:Src/main.c    **** 	/*SysTick->LOAD = SystemCoreClock/1000-1;		// –ó–∞–≥—Ä—É–∑–∫–∞ –∑–Ω–∞—á–µ–Ω–∏—è. –ù–∞–º –Ω—É–∂–µ–Ω
  44:Src/main.c    **** 	SysTick->VAL = 0x0;		// –û–±–Ω—É–ª—è–µ–º —Ç–∞–π–º–µ—Ä—ã –∏ —Ñ–ª–∞–≥–∏. –ó–∞–ø–∏—Å—å—é, –ø–æ–º–Ω–∏—
  45:Src/main.c    **** 	SysTick->CTRL =	SysTick_CTRL_CLKSOURCE_Msk |
  46:Src/main.c    **** 					SysTick_CTRL_TICKINT_Msk;*/
  47:Src/main.c    **** 
  48:Src/main.c    **** 	//HAL_UART_Receive_IT(&huart1, &data, 1);
  49:Src/main.c    **** 	while (1)
  50:Src/main.c    **** 	{
  51:Src/main.c    **** 		//HAL_UART_Transmit_DMA(&huart1, &data, 1);
  52:Src/main.c    **** 		/*if (flag_Rx == 0) HAL_UART_Receive_DMA(&huart1, &data, 1);
  53:Src/main.c    **** 		flag_Rx = 1;*/
  54:Src/main.c    **** 		if (data == 1) GPIOC->ODR ^= GPIO_ODR_ODR13;
 114              		.loc 1 54 0
 115 003c 094B     		ldr	r3, .L4+8
 116 003e 1B78     		ldrb	r3, [r3]
 117 0040 DBB2     		uxtb	r3, r3
 118 0042 012B     		cmp	r3, #1
 119 0044 05D1     		bne	.L2
 120              		.loc 1 54 0 is_stmt 0 discriminator 1
 121 0046 084A     		ldr	r2, .L4+12
 122 0048 074B     		ldr	r3, .L4+12
 123 004a DB68     		ldr	r3, [r3, #12]
 124 004c 83F40053 		eor	r3, r3, #8192
 125 0050 D360     		str	r3, [r2, #12]
 126              	.L2:
  55:Src/main.c    **** 
  56:Src/main.c    **** 		//HAL_UART_Transmit(&huart1, str, 5, 1000);
  57:Src/main.c    **** 
ARM GAS  /tmp/ccTeb35c.s 			page 4


  58:Src/main.c    **** 		/*if (((GPIOA->IDR & (GPIO_IDR_IDR0)) == 0) && (click0 != 0))
  59:Src/main.c    **** 		{
  60:Src/main.c    **** 			//GPIOC->ODR ^= GPIO_ODR_ODR13;
  61:Src/main.c    **** 			k ^= 1;
  62:Src/main.c    **** 		}
  63:Src/main.c    **** 		click0 = (GPIOA->IDR & (GPIO_IDR_IDR0));*/
  64:Src/main.c    **** 
  65:Src/main.c    **** 		//GPIOC->ODR ^= GPIO_ODR_ODR13;
  66:Src/main.c    **** 		//delay_ms(1000);
  67:Src/main.c    **** 		HAL_Delay(1000);
 127              		.loc 1 67 0 is_stmt 1
 128 0052 4FF47A70 		mov	r0, #1000
 129 0056 FFF7FEFF 		bl	HAL_Delay
  68:Src/main.c    **** 
  69:Src/main.c    **** 		/*if (huart1.RxXferCount == 0)
  70:Src/main.c    **** 		{
  71:Src/main.c    **** 			//HAL_UART_Transmit(&huart1, str, 5, 1000);
  72:Src/main.c    **** 			HAL_UART_Transmit(&huart1, &data, 1, 1000);
  73:Src/main.c    **** 			if (data == 1)
  74:Src/main.c    **** 			{
  75:Src/main.c    **** 				k = 1;
  76:Src/main.c    **** 				//GPIOC->BSRR |= GPIO_BSRR_BR13;
  77:Src/main.c    **** 			} else
  78:Src/main.c    **** 			{
  79:Src/main.c    **** 				k = 0;
  80:Src/main.c    **** 				GPIOC->BSRR |= GPIO_BSRR_BS13;
  81:Src/main.c    **** 			}
  82:Src/main.c    **** 			if (k == 1) GPIOC->ODR ^= GPIO_ODR_ODR13;
  83:Src/main.c    **** 			HAL_UART_Receive_IT(&huart1, &data, 1);
  84:Src/main.c    **** 		}*/
  85:Src/main.c    **** 
  86:Src/main.c    **** 		/*if (k == 0)
  87:Src/main.c    **** 		{
  88:Src/main.c    **** 			GPIOC->BSRR |= GPIO_BSRR_BS13;
  89:Src/main.c    **** 			Delay2(500000);
  90:Src/main.c    **** 			GPIOC->BSRR |= GPIO_BSRR_BR13;
  91:Src/main.c    **** 			Delay2(500000);
  92:Src/main.c    **** 		}*/
  93:Src/main.c    **** 	}
 130              		.loc 1 93 0
 131 005a EFE7     		b	.L3
 132              	.L5:
 133              		.align	2
 134              	.L4:
 135 005c 00000000 		.word	.LC0
 136 0060 00000000 		.word	huart1
 137 0064 00000000 		.word	data
 138 0068 00100140 		.word	1073811456
 139              		.cfi_endproc
 140              	.LFE63:
 142              		.section	.rodata
 143 0006 0000     		.align	2
 144              	.LC1:
 145 0008 5372632F 		.ascii	"Src/main.c\000"
 145      6D61696E 
 145      2E6300
 146              		.section	.text.SystemClock_Config,"ax",%progbits
ARM GAS  /tmp/ccTeb35c.s 			page 5


 147              		.align	2
 148              		.global	SystemClock_Config
 149              		.thumb
 150              		.thumb_func
 152              	SystemClock_Config:
 153              	.LFB64:
  94:Src/main.c    **** }
  95:Src/main.c    **** 
  96:Src/main.c    **** 
  97:Src/main.c    **** void SystemClock_Config(void)
  98:Src/main.c    **** {
 154              		.loc 1 98 0
 155              		.cfi_startproc
 156              		@ args = 0, pretend = 0, frame = 64
 157              		@ frame_needed = 1, uses_anonymous_args = 0
 158 0000 80B5     		push	{r7, lr}
 159              	.LCFI3:
 160              		.cfi_def_cfa_offset 8
 161              		.cfi_offset 7, -8
 162              		.cfi_offset 14, -4
 163 0002 90B0     		sub	sp, sp, #64
 164              	.LCFI4:
 165              		.cfi_def_cfa_offset 72
 166 0004 00AF     		add	r7, sp, #0
 167              	.LCFI5:
 168              		.cfi_def_cfa_register 7
  99:Src/main.c    **** 
 100:Src/main.c    ****   RCC_OscInitTypeDef RCC_OscInitStruct;
 101:Src/main.c    ****   RCC_ClkInitTypeDef RCC_ClkInitStruct;
 102:Src/main.c    **** 
 103:Src/main.c    ****     /**Initializes the CPU, AHB and APB busses clocks
 104:Src/main.c    ****     */
 105:Src/main.c    ****   RCC_OscInitStruct.OscillatorType = RCC_OSCILLATORTYPE_HSE;
 169              		.loc 1 105 0
 170 0006 0123     		movs	r3, #1
 171 0008 BB61     		str	r3, [r7, #24]
 106:Src/main.c    ****   RCC_OscInitStruct.HSEState = RCC_HSE_ON;
 172              		.loc 1 106 0
 173 000a 4FF48033 		mov	r3, #65536
 174 000e FB61     		str	r3, [r7, #28]
 107:Src/main.c    ****   RCC_OscInitStruct.HSEPredivValue = RCC_HSE_PREDIV_DIV1;
 175              		.loc 1 107 0
 176 0010 0023     		movs	r3, #0
 177 0012 3B62     		str	r3, [r7, #32]
 108:Src/main.c    ****   RCC_OscInitStruct.HSIState = RCC_HSI_ON;
 178              		.loc 1 108 0
 179 0014 0123     		movs	r3, #1
 180 0016 BB62     		str	r3, [r7, #40]
 109:Src/main.c    ****   RCC_OscInitStruct.PLL.PLLState = RCC_PLL_ON;
 181              		.loc 1 109 0
 182 0018 0223     		movs	r3, #2
 183 001a 7B63     		str	r3, [r7, #52]
 110:Src/main.c    ****   RCC_OscInitStruct.PLL.PLLSource = RCC_PLLSOURCE_HSE;
 184              		.loc 1 110 0
 185 001c 4FF48033 		mov	r3, #65536
 186 0020 BB63     		str	r3, [r7, #56]
 111:Src/main.c    ****   RCC_OscInitStruct.PLL.PLLMUL = RCC_PLL_MUL9;
ARM GAS  /tmp/ccTeb35c.s 			page 6


 187              		.loc 1 111 0
 188 0022 4FF4E013 		mov	r3, #1835008
 189 0026 FB63     		str	r3, [r7, #60]
 112:Src/main.c    ****   if (HAL_RCC_OscConfig(&RCC_OscInitStruct) != HAL_OK)
 190              		.loc 1 112 0
 191 0028 07F11803 		add	r3, r7, #24
 192 002c 1846     		mov	r0, r3
 193 002e FFF7FEFF 		bl	HAL_RCC_OscConfig
 194 0032 0346     		mov	r3, r0
 195 0034 002B     		cmp	r3, #0
 196 0036 03D0     		beq	.L7
 113:Src/main.c    ****   {
 114:Src/main.c    ****     _Error_Handler(__FILE__, __LINE__);
 197              		.loc 1 114 0
 198 0038 1748     		ldr	r0, .L9
 199 003a 7221     		movs	r1, #114
 200 003c FFF7FEFF 		bl	_Error_Handler
 201              	.L7:
 115:Src/main.c    ****   }
 116:Src/main.c    **** 
 117:Src/main.c    ****     /**Initializes the CPU, AHB and APB busses clocks
 118:Src/main.c    ****     */
 119:Src/main.c    ****   RCC_ClkInitStruct.ClockType = RCC_CLOCKTYPE_HCLK|RCC_CLOCKTYPE_SYSCLK
 202              		.loc 1 119 0
 203 0040 0F23     		movs	r3, #15
 204 0042 7B60     		str	r3, [r7, #4]
 120:Src/main.c    ****                               |RCC_CLOCKTYPE_PCLK1|RCC_CLOCKTYPE_PCLK2;
 121:Src/main.c    ****   RCC_ClkInitStruct.SYSCLKSource = RCC_SYSCLKSOURCE_PLLCLK;
 205              		.loc 1 121 0
 206 0044 0223     		movs	r3, #2
 207 0046 BB60     		str	r3, [r7, #8]
 122:Src/main.c    ****   RCC_ClkInitStruct.AHBCLKDivider = RCC_SYSCLK_DIV2;
 208              		.loc 1 122 0
 209 0048 8023     		movs	r3, #128
 210 004a FB60     		str	r3, [r7, #12]
 123:Src/main.c    ****   RCC_ClkInitStruct.APB1CLKDivider = RCC_HCLK_DIV1;
 211              		.loc 1 123 0
 212 004c 0023     		movs	r3, #0
 213 004e 3B61     		str	r3, [r7, #16]
 124:Src/main.c    ****   RCC_ClkInitStruct.APB2CLKDivider = RCC_HCLK_DIV1;
 214              		.loc 1 124 0
 215 0050 0023     		movs	r3, #0
 216 0052 7B61     		str	r3, [r7, #20]
 125:Src/main.c    **** 
 126:Src/main.c    ****   if (HAL_RCC_ClockConfig(&RCC_ClkInitStruct, FLASH_LATENCY_2) != HAL_OK)
 217              		.loc 1 126 0
 218 0054 3B1D     		adds	r3, r7, #4
 219 0056 1846     		mov	r0, r3
 220 0058 0221     		movs	r1, #2
 221 005a FFF7FEFF 		bl	HAL_RCC_ClockConfig
 222 005e 0346     		mov	r3, r0
 223 0060 002B     		cmp	r3, #0
 224 0062 03D0     		beq	.L8
 127:Src/main.c    ****   {
 128:Src/main.c    ****     _Error_Handler(__FILE__, __LINE__);
 225              		.loc 1 128 0
 226 0064 0C48     		ldr	r0, .L9
ARM GAS  /tmp/ccTeb35c.s 			page 7


 227 0066 8021     		movs	r1, #128
 228 0068 FFF7FEFF 		bl	_Error_Handler
 229              	.L8:
 129:Src/main.c    ****   }
 130:Src/main.c    **** 
 131:Src/main.c    ****     /**Configure the Systick interrupt time
 132:Src/main.c    ****     */
 133:Src/main.c    ****   HAL_SYSTICK_Config(HAL_RCC_GetHCLKFreq()/1000);
 230              		.loc 1 133 0
 231 006c FFF7FEFF 		bl	HAL_RCC_GetHCLKFreq
 232 0070 0246     		mov	r2, r0
 233 0072 0A4B     		ldr	r3, .L9+4
 234 0074 A3FB0223 		umull	r2, r3, r3, r2
 235 0078 9B09     		lsrs	r3, r3, #6
 236 007a 1846     		mov	r0, r3
 237 007c FFF7FEFF 		bl	HAL_SYSTICK_Config
 134:Src/main.c    **** 
 135:Src/main.c    ****     /**Configure the Systick
 136:Src/main.c    ****     */
 137:Src/main.c    ****   HAL_SYSTICK_CLKSourceConfig(SYSTICK_CLKSOURCE_HCLK);
 238              		.loc 1 137 0
 239 0080 0420     		movs	r0, #4
 240 0082 FFF7FEFF 		bl	HAL_SYSTICK_CLKSourceConfig
 138:Src/main.c    **** 
 139:Src/main.c    ****   /* SysTick_IRQn interrupt configuration */
 140:Src/main.c    ****   HAL_NVIC_SetPriority(SysTick_IRQn, 0, 0);
 241              		.loc 1 140 0
 242 0086 4FF0FF30 		mov	r0, #-1
 243 008a 0021     		movs	r1, #0
 244 008c 0022     		movs	r2, #0
 245 008e FFF7FEFF 		bl	HAL_NVIC_SetPriority
 141:Src/main.c    **** }
 246              		.loc 1 141 0
 247 0092 4037     		adds	r7, r7, #64
 248              	.LCFI6:
 249              		.cfi_def_cfa_offset 8
 250 0094 BD46     		mov	sp, r7
 251              	.LCFI7:
 252              		.cfi_def_cfa_register 13
 253              		@ sp needed
 254 0096 80BD     		pop	{r7, pc}
 255              	.L10:
 256              		.align	2
 257              	.L9:
 258 0098 08000000 		.word	.LC1
 259 009c D34D6210 		.word	274877907
 260              		.cfi_endproc
 261              	.LFE64:
 263              		.section	.text.MX_GPIO_Init,"ax",%progbits
 264              		.align	2
 265              		.thumb
 266              		.thumb_func
 268              	MX_GPIO_Init:
 269              	.LFB65:
 142:Src/main.c    **** 
 143:Src/main.c    **** static void MX_GPIO_Init(void)
 144:Src/main.c    **** {
ARM GAS  /tmp/ccTeb35c.s 			page 8


 270              		.loc 1 144 0
 271              		.cfi_startproc
 272              		@ args = 0, pretend = 0, frame = 32
 273              		@ frame_needed = 1, uses_anonymous_args = 0
 274 0000 80B5     		push	{r7, lr}
 275              	.LCFI8:
 276              		.cfi_def_cfa_offset 8
 277              		.cfi_offset 7, -8
 278              		.cfi_offset 14, -4
 279 0002 88B0     		sub	sp, sp, #32
 280              	.LCFI9:
 281              		.cfi_def_cfa_offset 40
 282 0004 00AF     		add	r7, sp, #0
 283              	.LCFI10:
 284              		.cfi_def_cfa_register 7
 285              	.LBB2:
 145:Src/main.c    **** 
 146:Src/main.c    **** 	GPIO_InitTypeDef GPIO_InitStruct;
 147:Src/main.c    **** 
 148:Src/main.c    **** 	/* GPIO Ports Clock Enable */
 149:Src/main.c    **** 	__HAL_RCC_GPIOC_CLK_ENABLE();
 286              		.loc 1 149 0
 287 0006 244A     		ldr	r2, .L12
 288 0008 234B     		ldr	r3, .L12
 289 000a 9B69     		ldr	r3, [r3, #24]
 290 000c 43F01003 		orr	r3, r3, #16
 291 0010 9361     		str	r3, [r2, #24]
 292 0012 214B     		ldr	r3, .L12
 293 0014 9B69     		ldr	r3, [r3, #24]
 294 0016 03F01003 		and	r3, r3, #16
 295 001a FB60     		str	r3, [r7, #12]
 296 001c FB68     		ldr	r3, [r7, #12]
 297              	.LBE2:
 298              	.LBB3:
 150:Src/main.c    **** 	__HAL_RCC_GPIOD_CLK_ENABLE();
 299              		.loc 1 150 0
 300 001e 1E4A     		ldr	r2, .L12
 301 0020 1D4B     		ldr	r3, .L12
 302 0022 9B69     		ldr	r3, [r3, #24]
 303 0024 43F02003 		orr	r3, r3, #32
 304 0028 9361     		str	r3, [r2, #24]
 305 002a 1B4B     		ldr	r3, .L12
 306 002c 9B69     		ldr	r3, [r3, #24]
 307 002e 03F02003 		and	r3, r3, #32
 308 0032 BB60     		str	r3, [r7, #8]
 309 0034 BB68     		ldr	r3, [r7, #8]
 310              	.LBE3:
 311              	.LBB4:
 151:Src/main.c    **** 	__HAL_RCC_GPIOA_CLK_ENABLE();
 312              		.loc 1 151 0
 313 0036 184A     		ldr	r2, .L12
 314 0038 174B     		ldr	r3, .L12
 315 003a 9B69     		ldr	r3, [r3, #24]
 316 003c 43F00403 		orr	r3, r3, #4
 317 0040 9361     		str	r3, [r2, #24]
 318 0042 154B     		ldr	r3, .L12
 319 0044 9B69     		ldr	r3, [r3, #24]
ARM GAS  /tmp/ccTeb35c.s 			page 9


 320 0046 03F00403 		and	r3, r3, #4
 321 004a 7B60     		str	r3, [r7, #4]
 322 004c 7B68     		ldr	r3, [r7, #4]
 323              	.LBE4:
 152:Src/main.c    **** 
 153:Src/main.c    **** 	/*Configure GPIO pin Output Level */
 154:Src/main.c    **** 	HAL_GPIO_WritePin(GPIOC, GPIO_PIN_13, GPIO_PIN_SET);
 324              		.loc 1 154 0
 325 004e 1348     		ldr	r0, .L12+4
 326 0050 4FF40051 		mov	r1, #8192
 327 0054 0122     		movs	r2, #1
 328 0056 FFF7FEFF 		bl	HAL_GPIO_WritePin
 155:Src/main.c    **** 
 156:Src/main.c    **** 	/*Configure GPIO pin : PC13 */
 157:Src/main.c    **** 	GPIO_InitStruct.Pin = GPIO_PIN_13;
 329              		.loc 1 157 0
 330 005a 4FF40053 		mov	r3, #8192
 331 005e 3B61     		str	r3, [r7, #16]
 158:Src/main.c    **** 	GPIO_InitStruct.Mode = GPIO_MODE_OUTPUT_PP;
 332              		.loc 1 158 0
 333 0060 0123     		movs	r3, #1
 334 0062 7B61     		str	r3, [r7, #20]
 159:Src/main.c    **** 	GPIO_InitStruct.Pull = GPIO_NOPULL;
 335              		.loc 1 159 0
 336 0064 0023     		movs	r3, #0
 337 0066 BB61     		str	r3, [r7, #24]
 160:Src/main.c    **** 	GPIO_InitStruct.Speed = GPIO_SPEED_FREQ_LOW;
 338              		.loc 1 160 0
 339 0068 0223     		movs	r3, #2
 340 006a FB61     		str	r3, [r7, #28]
 161:Src/main.c    **** 	HAL_GPIO_Init(GPIOC, &GPIO_InitStruct);
 341              		.loc 1 161 0
 342 006c 07F11003 		add	r3, r7, #16
 343 0070 0A48     		ldr	r0, .L12+4
 344 0072 1946     		mov	r1, r3
 345 0074 FFF7FEFF 		bl	HAL_GPIO_Init
 162:Src/main.c    **** 
 163:Src/main.c    **** 	/*Configure GPIO pin : PA0 */
 164:Src/main.c    **** 	GPIO_InitStruct.Pin = GPIO_PIN_0;
 346              		.loc 1 164 0
 347 0078 0123     		movs	r3, #1
 348 007a 3B61     		str	r3, [r7, #16]
 165:Src/main.c    **** 	GPIO_InitStruct.Mode = GPIO_MODE_INPUT;
 349              		.loc 1 165 0
 350 007c 0023     		movs	r3, #0
 351 007e 7B61     		str	r3, [r7, #20]
 166:Src/main.c    **** 	GPIO_InitStruct.Pull = GPIO_PULLUP;
 352              		.loc 1 166 0
 353 0080 0123     		movs	r3, #1
 354 0082 BB61     		str	r3, [r7, #24]
 167:Src/main.c    **** 	HAL_GPIO_Init(GPIOA, &GPIO_InitStruct);
 355              		.loc 1 167 0
 356 0084 07F11003 		add	r3, r7, #16
 357 0088 0548     		ldr	r0, .L12+8
 358 008a 1946     		mov	r1, r3
 359 008c FFF7FEFF 		bl	HAL_GPIO_Init
 168:Src/main.c    **** }
ARM GAS  /tmp/ccTeb35c.s 			page 10


 360              		.loc 1 168 0
 361 0090 2037     		adds	r7, r7, #32
 362              	.LCFI11:
 363              		.cfi_def_cfa_offset 8
 364 0092 BD46     		mov	sp, r7
 365              	.LCFI12:
 366              		.cfi_def_cfa_register 13
 367              		@ sp needed
 368 0094 80BD     		pop	{r7, pc}
 369              	.L13:
 370 0096 00BF     		.align	2
 371              	.L12:
 372 0098 00100240 		.word	1073876992
 373 009c 00100140 		.word	1073811456
 374 00a0 00080140 		.word	1073809408
 375              		.cfi_endproc
 376              	.LFE65:
 378              		.section	.text.MX_USART1_UART_Init,"ax",%progbits
 379              		.align	2
 380              		.thumb
 381              		.thumb_func
 383              	MX_USART1_UART_Init:
 384              	.LFB66:
 169:Src/main.c    **** 
 170:Src/main.c    **** /* USART1 init function */
 171:Src/main.c    **** static void MX_USART1_UART_Init(void)
 172:Src/main.c    **** {
 385              		.loc 1 172 0
 386              		.cfi_startproc
 387              		@ args = 0, pretend = 0, frame = 0
 388              		@ frame_needed = 1, uses_anonymous_args = 0
 389 0000 80B5     		push	{r7, lr}
 390              	.LCFI13:
 391              		.cfi_def_cfa_offset 8
 392              		.cfi_offset 7, -8
 393              		.cfi_offset 14, -4
 394 0002 00AF     		add	r7, sp, #0
 395              	.LCFI14:
 396              		.cfi_def_cfa_register 7
 173:Src/main.c    **** 
 174:Src/main.c    **** 	huart1.Instance = USART1;
 397              		.loc 1 174 0
 398 0004 114B     		ldr	r3, .L16
 399 0006 124A     		ldr	r2, .L16+4
 400 0008 1A60     		str	r2, [r3]
 175:Src/main.c    **** 	huart1.Init.BaudRate = 115200;
 401              		.loc 1 175 0
 402 000a 104B     		ldr	r3, .L16
 403 000c 4FF4E132 		mov	r2, #115200
 404 0010 5A60     		str	r2, [r3, #4]
 176:Src/main.c    **** 	huart1.Init.WordLength = UART_WORDLENGTH_8B;
 405              		.loc 1 176 0
 406 0012 0E4B     		ldr	r3, .L16
 407 0014 0022     		movs	r2, #0
 408 0016 9A60     		str	r2, [r3, #8]
 177:Src/main.c    **** 	huart1.Init.StopBits = UART_STOPBITS_1;
 409              		.loc 1 177 0
ARM GAS  /tmp/ccTeb35c.s 			page 11


 410 0018 0C4B     		ldr	r3, .L16
 411 001a 0022     		movs	r2, #0
 412 001c DA60     		str	r2, [r3, #12]
 178:Src/main.c    **** 	huart1.Init.Parity = UART_PARITY_NONE;
 413              		.loc 1 178 0
 414 001e 0B4B     		ldr	r3, .L16
 415 0020 0022     		movs	r2, #0
 416 0022 1A61     		str	r2, [r3, #16]
 179:Src/main.c    **** 	huart1.Init.Mode = UART_MODE_TX_RX;
 417              		.loc 1 179 0
 418 0024 094B     		ldr	r3, .L16
 419 0026 0C22     		movs	r2, #12
 420 0028 5A61     		str	r2, [r3, #20]
 180:Src/main.c    **** 	huart1.Init.HwFlowCtl = UART_HWCONTROL_NONE;
 421              		.loc 1 180 0
 422 002a 084B     		ldr	r3, .L16
 423 002c 0022     		movs	r2, #0
 424 002e 9A61     		str	r2, [r3, #24]
 181:Src/main.c    **** 	huart1.Init.OverSampling = UART_OVERSAMPLING_16;
 425              		.loc 1 181 0
 426 0030 064B     		ldr	r3, .L16
 427 0032 0022     		movs	r2, #0
 428 0034 DA61     		str	r2, [r3, #28]
 182:Src/main.c    **** 	if (HAL_UART_Init(&huart1) != HAL_OK)
 429              		.loc 1 182 0
 430 0036 0548     		ldr	r0, .L16
 431 0038 FFF7FEFF 		bl	HAL_UART_Init
 432 003c 0346     		mov	r3, r0
 433 003e 002B     		cmp	r3, #0
 434 0040 03D0     		beq	.L14
 183:Src/main.c    **** 	{
 184:Src/main.c    **** 	_Error_Handler(__FILE__, __LINE__);
 435              		.loc 1 184 0
 436 0042 0448     		ldr	r0, .L16+8
 437 0044 B821     		movs	r1, #184
 438 0046 FFF7FEFF 		bl	_Error_Handler
 439              	.L14:
 185:Src/main.c    **** 	}
 186:Src/main.c    **** }
 440              		.loc 1 186 0
 441 004a 80BD     		pop	{r7, pc}
 442              	.L17:
 443              		.align	2
 444              	.L16:
 445 004c 00000000 		.word	huart1
 446 0050 00380140 		.word	1073821696
 447 0054 08000000 		.word	.LC1
 448              		.cfi_endproc
 449              	.LFE66:
 451              		.section	.text.MX_DMA_Init,"ax",%progbits
 452              		.align	2
 453              		.thumb
 454              		.thumb_func
 456              	MX_DMA_Init:
 457              	.LFB67:
 187:Src/main.c    **** 
 188:Src/main.c    **** /**
ARM GAS  /tmp/ccTeb35c.s 			page 12


 189:Src/main.c    ****   * Enable DMA controller clock
 190:Src/main.c    ****   */
 191:Src/main.c    **** static void MX_DMA_Init(void)
 192:Src/main.c    **** {
 458              		.loc 1 192 0
 459              		.cfi_startproc
 460              		@ args = 0, pretend = 0, frame = 8
 461              		@ frame_needed = 1, uses_anonymous_args = 0
 462 0000 80B5     		push	{r7, lr}
 463              	.LCFI15:
 464              		.cfi_def_cfa_offset 8
 465              		.cfi_offset 7, -8
 466              		.cfi_offset 14, -4
 467 0002 82B0     		sub	sp, sp, #8
 468              	.LCFI16:
 469              		.cfi_def_cfa_offset 16
 470 0004 00AF     		add	r7, sp, #0
 471              	.LCFI17:
 472              		.cfi_def_cfa_register 7
 473              	.LBB5:
 193:Src/main.c    **** 	/* DMA controller clock enable */
 194:Src/main.c    **** 	__HAL_RCC_DMA1_CLK_ENABLE();
 474              		.loc 1 194 0
 475 0006 0F4A     		ldr	r2, .L19
 476 0008 0E4B     		ldr	r3, .L19
 477 000a 5B69     		ldr	r3, [r3, #20]
 478 000c 43F00103 		orr	r3, r3, #1
 479 0010 5361     		str	r3, [r2, #20]
 480 0012 0C4B     		ldr	r3, .L19
 481 0014 5B69     		ldr	r3, [r3, #20]
 482 0016 03F00103 		and	r3, r3, #1
 483 001a 7B60     		str	r3, [r7, #4]
 484 001c 7B68     		ldr	r3, [r7, #4]
 485              	.LBE5:
 195:Src/main.c    **** 
 196:Src/main.c    **** 	/* DMA interrupt init */
 197:Src/main.c    **** 	/* DMA1_Channel4_IRQn interrupt configuration */
 198:Src/main.c    **** 	HAL_NVIC_SetPriority(DMA1_Channel4_IRQn, 0, 0);
 486              		.loc 1 198 0
 487 001e 0E20     		movs	r0, #14
 488 0020 0021     		movs	r1, #0
 489 0022 0022     		movs	r2, #0
 490 0024 FFF7FEFF 		bl	HAL_NVIC_SetPriority
 199:Src/main.c    **** 	HAL_NVIC_EnableIRQ(DMA1_Channel4_IRQn);
 491              		.loc 1 199 0
 492 0028 0E20     		movs	r0, #14
 493 002a FFF7FEFF 		bl	HAL_NVIC_EnableIRQ
 200:Src/main.c    **** 	/* DMA1_Channel5_IRQn interrupt configuration */
 201:Src/main.c    **** 	HAL_NVIC_SetPriority(DMA1_Channel5_IRQn, 0, 0);
 494              		.loc 1 201 0
 495 002e 0F20     		movs	r0, #15
 496 0030 0021     		movs	r1, #0
 497 0032 0022     		movs	r2, #0
 498 0034 FFF7FEFF 		bl	HAL_NVIC_SetPriority
 202:Src/main.c    **** 	HAL_NVIC_EnableIRQ(DMA1_Channel5_IRQn);
 499              		.loc 1 202 0
 500 0038 0F20     		movs	r0, #15
ARM GAS  /tmp/ccTeb35c.s 			page 13


 501 003a FFF7FEFF 		bl	HAL_NVIC_EnableIRQ
 203:Src/main.c    **** 
 204:Src/main.c    **** }
 502              		.loc 1 204 0
 503 003e 0837     		adds	r7, r7, #8
 504              	.LCFI18:
 505              		.cfi_def_cfa_offset 8
 506 0040 BD46     		mov	sp, r7
 507              	.LCFI19:
 508              		.cfi_def_cfa_register 13
 509              		@ sp needed
 510 0042 80BD     		pop	{r7, pc}
 511              	.L20:
 512              		.align	2
 513              	.L19:
 514 0044 00100240 		.word	1073876992
 515              		.cfi_endproc
 516              	.LFE67:
 518              		.section	.text.Delay2,"ax",%progbits
 519              		.align	2
 520              		.global	Delay2
 521              		.thumb
 522              		.thumb_func
 524              	Delay2:
 525              	.LFB68:
 205:Src/main.c    **** 
 206:Src/main.c    **** /* —Ñ—É–Ω–∫—Ü–∏—è –∑–∞–¥–µ—Ä–∂–∫–∏ */
 207:Src/main.c    **** void Delay2(uint32_t t)
 208:Src/main.c    **** {
 526              		.loc 1 208 0
 527              		.cfi_startproc
 528              		@ args = 0, pretend = 0, frame = 16
 529              		@ frame_needed = 1, uses_anonymous_args = 0
 530              		@ link register save eliminated.
 531 0000 80B4     		push	{r7}
 532              	.LCFI20:
 533              		.cfi_def_cfa_offset 4
 534              		.cfi_offset 7, -4
 535 0002 85B0     		sub	sp, sp, #20
 536              	.LCFI21:
 537              		.cfi_def_cfa_offset 24
 538 0004 00AF     		add	r7, sp, #0
 539              	.LCFI22:
 540              		.cfi_def_cfa_register 7
 541 0006 7860     		str	r0, [r7, #4]
 542              	.LBB6:
 209:Src/main.c    ****   for (uint32_t i = 0; i < t; i++)
 543              		.loc 1 209 0
 544 0008 0023     		movs	r3, #0
 545 000a FB60     		str	r3, [r7, #12]
 546 000c 03E0     		b	.L22
 547              	.L23:
 210:Src/main.c    ****   {
 211:Src/main.c    ****     asm("NOP");
 548              		.loc 1 211 0 discriminator 3
 549              	@ 211 "Src/main.c" 1
 550 000e 00BF     		NOP
ARM GAS  /tmp/ccTeb35c.s 			page 14


 551              	@ 0 "" 2
 209:Src/main.c    ****   for (uint32_t i = 0; i < t; i++)
 552              		.loc 1 209 0 discriminator 3
 553              		.thumb
 554 0010 FB68     		ldr	r3, [r7, #12]
 555 0012 0133     		adds	r3, r3, #1
 556 0014 FB60     		str	r3, [r7, #12]
 557              	.L22:
 209:Src/main.c    ****   for (uint32_t i = 0; i < t; i++)
 558              		.loc 1 209 0 is_stmt 0 discriminator 1
 559 0016 FA68     		ldr	r2, [r7, #12]
 560 0018 7B68     		ldr	r3, [r7, #4]
 561 001a 9A42     		cmp	r2, r3
 562 001c F7D3     		bcc	.L23
 563              	.LBE6:
 212:Src/main.c    ****   }
 213:Src/main.c    **** }
 564              		.loc 1 213 0 is_stmt 1
 565 001e 1437     		adds	r7, r7, #20
 566              	.LCFI23:
 567              		.cfi_def_cfa_offset 4
 568 0020 BD46     		mov	sp, r7
 569              	.LCFI24:
 570              		.cfi_def_cfa_register 13
 571              		@ sp needed
 572 0022 5DF8047B 		ldr	r7, [sp], #4
 573              	.LCFI25:
 574              		.cfi_restore 7
 575              		.cfi_def_cfa_offset 0
 576 0026 7047     		bx	lr
 577              		.cfi_endproc
 578              	.LFE68:
 580              		.section	.text.delay_ms,"ax",%progbits
 581              		.align	2
 582              		.global	delay_ms
 583              		.thumb
 584              		.thumb_func
 586              	delay_ms:
 587              	.LFB69:
 214:Src/main.c    **** void delay_ms(uint32_t milliseconds)
 215:Src/main.c    **** {
 588              		.loc 1 215 0
 589              		.cfi_startproc
 590              		@ args = 0, pretend = 0, frame = 16
 591              		@ frame_needed = 1, uses_anonymous_args = 0
 592              		@ link register save eliminated.
 593 0000 80B4     		push	{r7}
 594              	.LCFI26:
 595              		.cfi_def_cfa_offset 4
 596              		.cfi_offset 7, -4
 597 0002 85B0     		sub	sp, sp, #20
 598              	.LCFI27:
 599              		.cfi_def_cfa_offset 24
 600 0004 00AF     		add	r7, sp, #0
 601              	.LCFI28:
 602              		.cfi_def_cfa_register 7
 603 0006 7860     		str	r0, [r7, #4]
ARM GAS  /tmp/ccTeb35c.s 			page 15


 216:Src/main.c    **** 	SysTick->CTRL |= SysTick_CTRL_ENABLE_Msk;	// –ó–∞–ø—É—Å–∫ —Å–∏—Å—Ç–µ–º–Ω–æ–≥–æ —Å—á–µ—Ç—á–∏–∫–∞
 604              		.loc 1 216 0
 605 0008 0D4A     		ldr	r2, .L26
 606 000a 0D4B     		ldr	r3, .L26
 607 000c 1B68     		ldr	r3, [r3]
 608 000e 43F00103 		orr	r3, r3, #1
 609 0012 1360     		str	r3, [r2]
 217:Src/main.c    **** 	uint32_t start = ticks_delay;
 610              		.loc 1 217 0
 611 0014 0B4B     		ldr	r3, .L26+4
 612 0016 1B68     		ldr	r3, [r3]
 613 0018 FB60     		str	r3, [r7, #12]
 218:Src/main.c    **** 	while ((ticks_delay - start) < milliseconds);
 614              		.loc 1 218 0
 615 001a 00BF     		nop
 616              	.L25:
 617              		.loc 1 218 0 is_stmt 0 discriminator 1
 618 001c 094B     		ldr	r3, .L26+4
 619 001e 1A68     		ldr	r2, [r3]
 620 0020 FB68     		ldr	r3, [r7, #12]
 621 0022 D21A     		subs	r2, r2, r3
 622 0024 7B68     		ldr	r3, [r7, #4]
 623 0026 9A42     		cmp	r2, r3
 624 0028 F8D3     		bcc	.L25
 219:Src/main.c    **** 	SysTick->CTRL ^= SysTick_CTRL_ENABLE_Msk;	// –û—Å—Ç–∞–Ω–æ–≤–∫–∞ —Å–∏—Å—Ç–µ–º–Ω–æ–≥–æ —Å—á–µ—Ç—á–∏–
 625              		.loc 1 219 0 is_stmt 1
 626 002a 054A     		ldr	r2, .L26
 627 002c 044B     		ldr	r3, .L26
 628 002e 1B68     		ldr	r3, [r3]
 629 0030 83F00103 		eor	r3, r3, #1
 630 0034 1360     		str	r3, [r2]
 220:Src/main.c    **** }
 631              		.loc 1 220 0
 632 0036 1437     		adds	r7, r7, #20
 633              	.LCFI29:
 634              		.cfi_def_cfa_offset 4
 635 0038 BD46     		mov	sp, r7
 636              	.LCFI30:
 637              		.cfi_def_cfa_register 13
 638              		@ sp needed
 639 003a 5DF8047B 		ldr	r7, [sp], #4
 640              	.LCFI31:
 641              		.cfi_restore 7
 642              		.cfi_def_cfa_offset 0
 643 003e 7047     		bx	lr
 644              	.L27:
 645              		.align	2
 646              	.L26:
 647 0040 10E000E0 		.word	-536813552
 648 0044 00000000 		.word	ticks_delay
 649              		.cfi_endproc
 650              	.LFE69:
 652              		.section	.text._Error_Handler,"ax",%progbits
 653              		.align	2
 654              		.global	_Error_Handler
 655              		.thumb
 656              		.thumb_func
ARM GAS  /tmp/ccTeb35c.s 			page 16


 658              	_Error_Handler:
 659              	.LFB70:
 221:Src/main.c    **** 
 222:Src/main.c    **** 
 223:Src/main.c    **** /**
 224:Src/main.c    ****   * @brief  This function is executed in case of error occurrence.
 225:Src/main.c    ****   * @param  file: The file name as string.
 226:Src/main.c    ****   * @param  line: The line in file as a number.
 227:Src/main.c    ****   * @retval None
 228:Src/main.c    ****   */
 229:Src/main.c    **** void _Error_Handler(char *file, int line)
 230:Src/main.c    **** {
 660              		.loc 1 230 0
 661              		.cfi_startproc
 662              		@ args = 0, pretend = 0, frame = 8
 663              		@ frame_needed = 1, uses_anonymous_args = 0
 664              		@ link register save eliminated.
 665 0000 80B4     		push	{r7}
 666              	.LCFI32:
 667              		.cfi_def_cfa_offset 4
 668              		.cfi_offset 7, -4
 669 0002 83B0     		sub	sp, sp, #12
 670              	.LCFI33:
 671              		.cfi_def_cfa_offset 16
 672 0004 00AF     		add	r7, sp, #0
 673              	.LCFI34:
 674              		.cfi_def_cfa_register 7
 675 0006 7860     		str	r0, [r7, #4]
 676 0008 3960     		str	r1, [r7]
 677              	.L29:
 231:Src/main.c    ****   /* USER CODE BEGIN Error_Handler_Debug */
 232:Src/main.c    ****   /* User can add his own implementation to report the HAL error return state */
 233:Src/main.c    ****   while(1)
 234:Src/main.c    ****   {
 235:Src/main.c    ****   }
 678              		.loc 1 235 0 discriminator 1
 679 000a FEE7     		b	.L29
 680              		.cfi_endproc
 681              	.LFE70:
 683              		.text
 684              	.Letext0:
 685              		.file 2 "/usr/include/newlib/machine/_default_types.h"
 686              		.file 3 "/usr/include/newlib/sys/_stdint.h"
 687              		.file 4 "Drivers/CMSIS/Include/core_cm3.h"
 688              		.file 5 "Drivers/CMSIS/Device/ST/STM32F1xx/Include/stm32f103xb.h"
 689              		.file 6 "Drivers/STM32F1xx_HAL_Driver/Inc/stm32f1xx_hal_def.h"
 690              		.file 7 "Drivers/STM32F1xx_HAL_Driver/Inc/stm32f1xx_hal_rcc.h"
 691              		.file 8 "Drivers/STM32F1xx_HAL_Driver/Inc/stm32f1xx_hal_rcc_ex.h"
 692              		.file 9 "Drivers/STM32F1xx_HAL_Driver/Inc/stm32f1xx_hal_gpio.h"
 693              		.file 10 "Drivers/STM32F1xx_HAL_Driver/Inc/stm32f1xx_hal_dma.h"
 694              		.file 11 "Drivers/STM32F1xx_HAL_Driver/Inc/stm32f1xx_hal_uart.h"
ARM GAS  /tmp/ccTeb35c.s 			page 17

