ARM GAS  /tmp/ccOVengl.s 			page 1


   1              		.syntax unified
   2              		.cpu cortex-m3
   3              		.fpu softvfp
   4              		.eabi_attribute 20, 1
   5              		.eabi_attribute 21, 1
   6              		.eabi_attribute 23, 3
   7              		.eabi_attribute 24, 1
   8              		.eabi_attribute 25, 1
   9              		.eabi_attribute 26, 1
  10              		.eabi_attribute 30, 6
  11              		.eabi_attribute 34, 1
  12              		.eabi_attribute 18, 4
  13              		.thumb
  14              		.file	"main.c"
  15              		.text
  16              	.Ltext0:
  17              		.cfi_sections	.debug_frame
  18              		.global	click0
  19              		.section	.data.click0,"aw",%progbits
  22              	click0:
  23 0000 01       		.byte	1
  24              		.global	k
  25              		.section	.data.k,"aw",%progbits
  28              	k:
  29 0000 01       		.byte	1
  30              		.global	ticks_delay
  31              		.section	.bss.ticks_delay,"aw",%nobits
  32              		.align	2
  35              	ticks_delay:
  36 0000 00000000 		.space	4
  37              		.comm	huart1,64,4
  38              		.section	.rodata
  39              		.align	2
  40              	.LC0:
  41 0000 48656C6C 		.ascii	"Hello\000"
  41      6F00
  42              		.section	.text.main,"ax",%progbits
  43              		.align	2
  44              		.global	main
  45              		.thumb
  46              		.thumb_func
  48              	main:
  49              	.LFB63:
  50              		.file 1 "Src/main.c"
   1:Src/main.c    **** 
   2:Src/main.c    **** /* Defined -------------------------------------------------------------------*/
   3:Src/main.c    **** 
   4:Src/main.c    **** 
   5:Src/main.c    **** /* Includes ------------------------------------------------------------------*/
   6:Src/main.c    **** #include "main.h"
   7:Src/main.c    **** #include "stm32f1xx_hal.h"
   8:Src/main.c    **** #include "stm32f1xx_it.h"
   9:Src/main.c    **** 
  10:Src/main.c    **** /* Private variables ---------------------------------------------------------*/
  11:Src/main.c    **** char click0=1, k=1;
  12:Src/main.c    **** volatile uint32_t ticks_delay = 0;
  13:Src/main.c    **** UART_HandleTypeDef huart1;
ARM GAS  /tmp/ccOVengl.s 			page 2


  14:Src/main.c    **** 
  15:Src/main.c    **** /* Private function prototypes -----------------------------------------------*/
  16:Src/main.c    **** void SystemClock_Config(void);
  17:Src/main.c    **** static void MX_GPIO_Init(void);
  18:Src/main.c    **** static void MX_USART1_UART_Init(void);
  19:Src/main.c    **** void Delay2(uint32_t t);
  20:Src/main.c    **** void delay_ms(uint32_t milliseconds);
  21:Src/main.c    **** 
  22:Src/main.c    **** int main(void)
  23:Src/main.c    **** {
  51              		.loc 1 23 0
  52              		.cfi_startproc
  53              		@ args = 0, pretend = 0, frame = 8
  54              		@ frame_needed = 1, uses_anonymous_args = 0
  55 0000 80B5     		push	{r7, lr}
  56              	.LCFI0:
  57              		.cfi_def_cfa_offset 8
  58              		.cfi_offset 7, -8
  59              		.cfi_offset 14, -4
  60 0002 82B0     		sub	sp, sp, #8
  61              	.LCFI1:
  62              		.cfi_def_cfa_offset 16
  63 0004 00AF     		add	r7, sp, #0
  64              	.LCFI2:
  65              		.cfi_def_cfa_register 7
  24:Src/main.c    **** 	uint8_t data = 1;
  66              		.loc 1 24 0
  67 0006 0123     		movs	r3, #1
  68 0008 FB71     		strb	r3, [r7, #7]
  25:Src/main.c    **** 	uint8_t str[] = "Hello";
  69              		.loc 1 25 0
  70 000a 1E4A     		ldr	r2, .L7
  71 000c 3B46     		mov	r3, r7
  72 000e 92E80300 		ldmia	r2, {r0, r1}
  73 0012 1860     		str	r0, [r3]
  74 0014 0433     		adds	r3, r3, #4
  75 0016 1980     		strh	r1, [r3]	@ movhi
  26:Src/main.c    **** 
  27:Src/main.c    **** 	// Initialization
  28:Src/main.c    **** 	HAL_Init();
  76              		.loc 1 28 0
  77 0018 FFF7FEFF 		bl	HAL_Init
  29:Src/main.c    **** 	SystemClock_Config();
  78              		.loc 1 29 0
  79 001c FFF7FEFF 		bl	SystemClock_Config
  30:Src/main.c    **** 	MX_GPIO_Init();
  80              		.loc 1 30 0
  81 0020 FFF7FEFF 		bl	MX_GPIO_Init
  31:Src/main.c    **** 	MX_USART1_UART_Init();
  82              		.loc 1 31 0
  83 0024 FFF7FEFF 		bl	MX_USART1_UART_Init
  84              	.L6:
  32:Src/main.c    **** 
  33:Src/main.c    **** 	// For SysTick
  34:Src/main.c    **** 	// SysTick
  35:Src/main.c    **** 	/*SysTick->LOAD = SystemCoreClock/1000-1;		// –ó–∞–≥—Ä—É–∑–∫–∞ –∑–Ω–∞—á–µ–Ω–∏—è. –ù–∞–º –Ω—É–∂–µ–Ω
  36:Src/main.c    **** 	SysTick->VAL = 0x0;		// –û–±–Ω—É–ª—è–µ–º —Ç–∞–π–º–µ—Ä—ã –∏ —Ñ–ª–∞–≥–∏. –ó–∞–ø–∏—Å—å—é, –ø–æ–º–Ω–∏—
ARM GAS  /tmp/ccOVengl.s 			page 3


  37:Src/main.c    **** 	SysTick->CTRL =	SysTick_CTRL_CLKSOURCE_Msk |
  38:Src/main.c    **** 					SysTick_CTRL_TICKINT_Msk;*/
  39:Src/main.c    **** 
  40:Src/main.c    **** 	//HAL_UART_Receive_IT(&huart1, &data, 1);
  41:Src/main.c    **** 	while (1)
  42:Src/main.c    **** 	{
  43:Src/main.c    **** 		//HAL_UART_Transmit(&huart1, str, 5, 1000);
  44:Src/main.c    **** 
  45:Src/main.c    **** 		/*if (((GPIOA->IDR & (GPIO_IDR_IDR0)) == 0) && (click0 != 0))
  46:Src/main.c    **** 		{
  47:Src/main.c    **** 			//GPIOC->ODR ^= GPIO_ODR_ODR13;
  48:Src/main.c    **** 			k ^= 1;
  49:Src/main.c    **** 		}
  50:Src/main.c    **** 		click0 = (GPIOA->IDR & (GPIO_IDR_IDR0));*/
  51:Src/main.c    **** 
  52:Src/main.c    **** 		//GPIOC->ODR ^= GPIO_ODR_ODR13;
  53:Src/main.c    **** 		//delay_ms(1000);
  54:Src/main.c    **** 		//HAL_Delay(1000);
  55:Src/main.c    **** 
  56:Src/main.c    **** 		if (huart1.RxXferCount == 0)
  85              		.loc 1 56 0
  86 0028 174B     		ldr	r3, .L7+4
  87 002a DB8D     		ldrh	r3, [r3, #46]	@ movhi
  88 002c 9BB2     		uxth	r3, r3
  89 002e 002B     		cmp	r3, #0
  90 0030 27D1     		bne	.L2
  57:Src/main.c    **** 		{
  58:Src/main.c    **** 			//HAL_UART_Transmit(&huart1, str, 5, 1000);
  59:Src/main.c    **** 			HAL_UART_Transmit(&huart1, &data, 1, 1000);
  91              		.loc 1 59 0
  92 0032 FB1D     		adds	r3, r7, #7
  93 0034 1448     		ldr	r0, .L7+4
  94 0036 1946     		mov	r1, r3
  95 0038 0122     		movs	r2, #1
  96 003a 4FF47A73 		mov	r3, #1000
  97 003e FFF7FEFF 		bl	HAL_UART_Transmit
  60:Src/main.c    **** 			if (data == 1)
  98              		.loc 1 60 0
  99 0042 FB79     		ldrb	r3, [r7, #7]	@ zero_extendqisi2
 100 0044 012B     		cmp	r3, #1
 101 0046 03D1     		bne	.L3
  61:Src/main.c    **** 			{
  62:Src/main.c    **** 				k = 1;
 102              		.loc 1 62 0
 103 0048 104B     		ldr	r3, .L7+8
 104 004a 0122     		movs	r2, #1
 105 004c 1A70     		strb	r2, [r3]
 106 004e 08E0     		b	.L4
 107              	.L3:
  63:Src/main.c    **** 				//GPIOC->BSRR |= GPIO_BSRR_BR13;
  64:Src/main.c    **** 			} else
  65:Src/main.c    **** 			{
  66:Src/main.c    **** 				k = 0;
 108              		.loc 1 66 0
 109 0050 0E4B     		ldr	r3, .L7+8
 110 0052 0022     		movs	r2, #0
 111 0054 1A70     		strb	r2, [r3]
ARM GAS  /tmp/ccOVengl.s 			page 4


  67:Src/main.c    **** 				GPIOC->BSRR |= GPIO_BSRR_BS13;
 112              		.loc 1 67 0
 113 0056 0E4A     		ldr	r2, .L7+12
 114 0058 0D4B     		ldr	r3, .L7+12
 115 005a 1B69     		ldr	r3, [r3, #16]
 116 005c 43F40053 		orr	r3, r3, #8192
 117 0060 1361     		str	r3, [r2, #16]
 118              	.L4:
  68:Src/main.c    **** 			}
  69:Src/main.c    **** 			if (k == 1) GPIOC->ODR ^= GPIO_ODR_ODR13;
 119              		.loc 1 69 0
 120 0062 0A4B     		ldr	r3, .L7+8
 121 0064 1B78     		ldrb	r3, [r3]	@ zero_extendqisi2
 122 0066 012B     		cmp	r3, #1
 123 0068 05D1     		bne	.L5
 124              		.loc 1 69 0 is_stmt 0 discriminator 1
 125 006a 094A     		ldr	r2, .L7+12
 126 006c 084B     		ldr	r3, .L7+12
 127 006e DB68     		ldr	r3, [r3, #12]
 128 0070 83F40053 		eor	r3, r3, #8192
 129 0074 D360     		str	r3, [r2, #12]
 130              	.L5:
  70:Src/main.c    **** 			HAL_UART_Receive_IT(&huart1, &data, 1);
 131              		.loc 1 70 0 is_stmt 1
 132 0076 FB1D     		adds	r3, r7, #7
 133 0078 0348     		ldr	r0, .L7+4
 134 007a 1946     		mov	r1, r3
 135 007c 0122     		movs	r2, #1
 136 007e FFF7FEFF 		bl	HAL_UART_Receive_IT
 137              	.L2:
  71:Src/main.c    **** 		}
  72:Src/main.c    **** 		/*if (k == 0)
  73:Src/main.c    **** 		{
  74:Src/main.c    **** 			GPIOC->BSRR |= GPIO_BSRR_BS13;
  75:Src/main.c    **** 			Delay2(500000);
  76:Src/main.c    **** 			GPIOC->BSRR |= GPIO_BSRR_BR13;
  77:Src/main.c    **** 			Delay2(500000);
  78:Src/main.c    **** 		}*/
  79:Src/main.c    **** 	}
 138              		.loc 1 79 0
 139 0082 D1E7     		b	.L6
 140              	.L8:
 141              		.align	2
 142              	.L7:
 143 0084 00000000 		.word	.LC0
 144 0088 00000000 		.word	huart1
 145 008c 00000000 		.word	k
 146 0090 00100140 		.word	1073811456
 147              		.cfi_endproc
 148              	.LFE63:
 150              		.section	.rodata
 151 0006 0000     		.align	2
 152              	.LC1:
 153 0008 5372632F 		.ascii	"Src/main.c\000"
 153      6D61696E 
 153      2E6300
 154              		.section	.text.SystemClock_Config,"ax",%progbits
ARM GAS  /tmp/ccOVengl.s 			page 5


 155              		.align	2
 156              		.global	SystemClock_Config
 157              		.thumb
 158              		.thumb_func
 160              	SystemClock_Config:
 161              	.LFB64:
  80:Src/main.c    **** }
  81:Src/main.c    **** 
  82:Src/main.c    **** 
  83:Src/main.c    **** void SystemClock_Config(void)
  84:Src/main.c    **** {
 162              		.loc 1 84 0
 163              		.cfi_startproc
 164              		@ args = 0, pretend = 0, frame = 64
 165              		@ frame_needed = 1, uses_anonymous_args = 0
 166 0000 80B5     		push	{r7, lr}
 167              	.LCFI3:
 168              		.cfi_def_cfa_offset 8
 169              		.cfi_offset 7, -8
 170              		.cfi_offset 14, -4
 171 0002 90B0     		sub	sp, sp, #64
 172              	.LCFI4:
 173              		.cfi_def_cfa_offset 72
 174 0004 00AF     		add	r7, sp, #0
 175              	.LCFI5:
 176              		.cfi_def_cfa_register 7
  85:Src/main.c    **** 
  86:Src/main.c    ****   RCC_OscInitTypeDef RCC_OscInitStruct;
  87:Src/main.c    ****   RCC_ClkInitTypeDef RCC_ClkInitStruct;
  88:Src/main.c    **** 
  89:Src/main.c    ****     /**Initializes the CPU, AHB and APB busses clocks
  90:Src/main.c    ****     */
  91:Src/main.c    ****   RCC_OscInitStruct.OscillatorType = RCC_OSCILLATORTYPE_HSE;
 177              		.loc 1 91 0
 178 0006 0123     		movs	r3, #1
 179 0008 BB61     		str	r3, [r7, #24]
  92:Src/main.c    ****   RCC_OscInitStruct.HSEState = RCC_HSE_ON;
 180              		.loc 1 92 0
 181 000a 4FF48033 		mov	r3, #65536
 182 000e FB61     		str	r3, [r7, #28]
  93:Src/main.c    ****   RCC_OscInitStruct.HSEPredivValue = RCC_HSE_PREDIV_DIV1;
 183              		.loc 1 93 0
 184 0010 0023     		movs	r3, #0
 185 0012 3B62     		str	r3, [r7, #32]
  94:Src/main.c    ****   RCC_OscInitStruct.HSIState = RCC_HSI_ON;
 186              		.loc 1 94 0
 187 0014 0123     		movs	r3, #1
 188 0016 BB62     		str	r3, [r7, #40]
  95:Src/main.c    ****   RCC_OscInitStruct.PLL.PLLState = RCC_PLL_ON;
 189              		.loc 1 95 0
 190 0018 0223     		movs	r3, #2
 191 001a 7B63     		str	r3, [r7, #52]
  96:Src/main.c    ****   RCC_OscInitStruct.PLL.PLLSource = RCC_PLLSOURCE_HSE;
 192              		.loc 1 96 0
 193 001c 4FF48033 		mov	r3, #65536
 194 0020 BB63     		str	r3, [r7, #56]
  97:Src/main.c    ****   RCC_OscInitStruct.PLL.PLLMUL = RCC_PLL_MUL9;
ARM GAS  /tmp/ccOVengl.s 			page 6


 195              		.loc 1 97 0
 196 0022 4FF4E013 		mov	r3, #1835008
 197 0026 FB63     		str	r3, [r7, #60]
  98:Src/main.c    ****   if (HAL_RCC_OscConfig(&RCC_OscInitStruct) != HAL_OK)
 198              		.loc 1 98 0
 199 0028 07F11803 		add	r3, r7, #24
 200 002c 1846     		mov	r0, r3
 201 002e FFF7FEFF 		bl	HAL_RCC_OscConfig
 202 0032 0346     		mov	r3, r0
 203 0034 002B     		cmp	r3, #0
 204 0036 03D0     		beq	.L10
  99:Src/main.c    ****   {
 100:Src/main.c    ****     _Error_Handler(__FILE__, __LINE__);
 205              		.loc 1 100 0
 206 0038 1748     		ldr	r0, .L12
 207 003a 6421     		movs	r1, #100
 208 003c FFF7FEFF 		bl	_Error_Handler
 209              	.L10:
 101:Src/main.c    ****   }
 102:Src/main.c    **** 
 103:Src/main.c    ****     /**Initializes the CPU, AHB and APB busses clocks
 104:Src/main.c    ****     */
 105:Src/main.c    ****   RCC_ClkInitStruct.ClockType = RCC_CLOCKTYPE_HCLK|RCC_CLOCKTYPE_SYSCLK
 210              		.loc 1 105 0
 211 0040 0F23     		movs	r3, #15
 212 0042 7B60     		str	r3, [r7, #4]
 106:Src/main.c    ****                               |RCC_CLOCKTYPE_PCLK1|RCC_CLOCKTYPE_PCLK2;
 107:Src/main.c    ****   RCC_ClkInitStruct.SYSCLKSource = RCC_SYSCLKSOURCE_PLLCLK;
 213              		.loc 1 107 0
 214 0044 0223     		movs	r3, #2
 215 0046 BB60     		str	r3, [r7, #8]
 108:Src/main.c    ****   RCC_ClkInitStruct.AHBCLKDivider = RCC_SYSCLK_DIV2;
 216              		.loc 1 108 0
 217 0048 8023     		movs	r3, #128
 218 004a FB60     		str	r3, [r7, #12]
 109:Src/main.c    ****   RCC_ClkInitStruct.APB1CLKDivider = RCC_HCLK_DIV1;
 219              		.loc 1 109 0
 220 004c 0023     		movs	r3, #0
 221 004e 3B61     		str	r3, [r7, #16]
 110:Src/main.c    ****   RCC_ClkInitStruct.APB2CLKDivider = RCC_HCLK_DIV1;
 222              		.loc 1 110 0
 223 0050 0023     		movs	r3, #0
 224 0052 7B61     		str	r3, [r7, #20]
 111:Src/main.c    **** 
 112:Src/main.c    ****   if (HAL_RCC_ClockConfig(&RCC_ClkInitStruct, FLASH_LATENCY_2) != HAL_OK)
 225              		.loc 1 112 0
 226 0054 3B1D     		adds	r3, r7, #4
 227 0056 1846     		mov	r0, r3
 228 0058 0221     		movs	r1, #2
 229 005a FFF7FEFF 		bl	HAL_RCC_ClockConfig
 230 005e 0346     		mov	r3, r0
 231 0060 002B     		cmp	r3, #0
 232 0062 03D0     		beq	.L11
 113:Src/main.c    ****   {
 114:Src/main.c    ****     _Error_Handler(__FILE__, __LINE__);
 233              		.loc 1 114 0
 234 0064 0C48     		ldr	r0, .L12
ARM GAS  /tmp/ccOVengl.s 			page 7


 235 0066 7221     		movs	r1, #114
 236 0068 FFF7FEFF 		bl	_Error_Handler
 237              	.L11:
 115:Src/main.c    ****   }
 116:Src/main.c    **** 
 117:Src/main.c    ****     /**Configure the Systick interrupt time
 118:Src/main.c    ****     */
 119:Src/main.c    ****   HAL_SYSTICK_Config(HAL_RCC_GetHCLKFreq()/1000);
 238              		.loc 1 119 0
 239 006c FFF7FEFF 		bl	HAL_RCC_GetHCLKFreq
 240 0070 0246     		mov	r2, r0
 241 0072 0A4B     		ldr	r3, .L12+4
 242 0074 A3FB0223 		umull	r2, r3, r3, r2
 243 0078 9B09     		lsrs	r3, r3, #6
 244 007a 1846     		mov	r0, r3
 245 007c FFF7FEFF 		bl	HAL_SYSTICK_Config
 120:Src/main.c    **** 
 121:Src/main.c    ****     /**Configure the Systick
 122:Src/main.c    ****     */
 123:Src/main.c    ****   HAL_SYSTICK_CLKSourceConfig(SYSTICK_CLKSOURCE_HCLK);
 246              		.loc 1 123 0
 247 0080 0420     		movs	r0, #4
 248 0082 FFF7FEFF 		bl	HAL_SYSTICK_CLKSourceConfig
 124:Src/main.c    **** 
 125:Src/main.c    ****   /* SysTick_IRQn interrupt configuration */
 126:Src/main.c    ****   HAL_NVIC_SetPriority(SysTick_IRQn, 0, 0);
 249              		.loc 1 126 0
 250 0086 4FF0FF30 		mov	r0, #-1
 251 008a 0021     		movs	r1, #0
 252 008c 0022     		movs	r2, #0
 253 008e FFF7FEFF 		bl	HAL_NVIC_SetPriority
 127:Src/main.c    **** }
 254              		.loc 1 127 0
 255 0092 4037     		adds	r7, r7, #64
 256              	.LCFI6:
 257              		.cfi_def_cfa_offset 8
 258 0094 BD46     		mov	sp, r7
 259              	.LCFI7:
 260              		.cfi_def_cfa_register 13
 261              		@ sp needed
 262 0096 80BD     		pop	{r7, pc}
 263              	.L13:
 264              		.align	2
 265              	.L12:
 266 0098 08000000 		.word	.LC1
 267 009c D34D6210 		.word	274877907
 268              		.cfi_endproc
 269              	.LFE64:
 271              		.section	.text.MX_GPIO_Init,"ax",%progbits
 272              		.align	2
 273              		.thumb
 274              		.thumb_func
 276              	MX_GPIO_Init:
 277              	.LFB65:
 128:Src/main.c    **** 
 129:Src/main.c    **** static void MX_GPIO_Init(void)
 130:Src/main.c    **** {
ARM GAS  /tmp/ccOVengl.s 			page 8


 278              		.loc 1 130 0
 279              		.cfi_startproc
 280              		@ args = 0, pretend = 0, frame = 32
 281              		@ frame_needed = 1, uses_anonymous_args = 0
 282 0000 80B5     		push	{r7, lr}
 283              	.LCFI8:
 284              		.cfi_def_cfa_offset 8
 285              		.cfi_offset 7, -8
 286              		.cfi_offset 14, -4
 287 0002 88B0     		sub	sp, sp, #32
 288              	.LCFI9:
 289              		.cfi_def_cfa_offset 40
 290 0004 00AF     		add	r7, sp, #0
 291              	.LCFI10:
 292              		.cfi_def_cfa_register 7
 293              	.LBB2:
 131:Src/main.c    **** 
 132:Src/main.c    **** 	GPIO_InitTypeDef GPIO_InitStruct;
 133:Src/main.c    **** 
 134:Src/main.c    **** 	/* GPIO Ports Clock Enable */
 135:Src/main.c    **** 	__HAL_RCC_GPIOC_CLK_ENABLE();
 294              		.loc 1 135 0
 295 0006 244A     		ldr	r2, .L15
 296 0008 234B     		ldr	r3, .L15
 297 000a 9B69     		ldr	r3, [r3, #24]
 298 000c 43F01003 		orr	r3, r3, #16
 299 0010 9361     		str	r3, [r2, #24]
 300 0012 214B     		ldr	r3, .L15
 301 0014 9B69     		ldr	r3, [r3, #24]
 302 0016 03F01003 		and	r3, r3, #16
 303 001a FB60     		str	r3, [r7, #12]
 304 001c FB68     		ldr	r3, [r7, #12]
 305              	.LBE2:
 306              	.LBB3:
 136:Src/main.c    **** 	__HAL_RCC_GPIOD_CLK_ENABLE();
 307              		.loc 1 136 0
 308 001e 1E4A     		ldr	r2, .L15
 309 0020 1D4B     		ldr	r3, .L15
 310 0022 9B69     		ldr	r3, [r3, #24]
 311 0024 43F02003 		orr	r3, r3, #32
 312 0028 9361     		str	r3, [r2, #24]
 313 002a 1B4B     		ldr	r3, .L15
 314 002c 9B69     		ldr	r3, [r3, #24]
 315 002e 03F02003 		and	r3, r3, #32
 316 0032 BB60     		str	r3, [r7, #8]
 317 0034 BB68     		ldr	r3, [r7, #8]
 318              	.LBE3:
 319              	.LBB4:
 137:Src/main.c    **** 	__HAL_RCC_GPIOA_CLK_ENABLE();
 320              		.loc 1 137 0
 321 0036 184A     		ldr	r2, .L15
 322 0038 174B     		ldr	r3, .L15
 323 003a 9B69     		ldr	r3, [r3, #24]
 324 003c 43F00403 		orr	r3, r3, #4
 325 0040 9361     		str	r3, [r2, #24]
 326 0042 154B     		ldr	r3, .L15
 327 0044 9B69     		ldr	r3, [r3, #24]
ARM GAS  /tmp/ccOVengl.s 			page 9


 328 0046 03F00403 		and	r3, r3, #4
 329 004a 7B60     		str	r3, [r7, #4]
 330 004c 7B68     		ldr	r3, [r7, #4]
 331              	.LBE4:
 138:Src/main.c    **** 
 139:Src/main.c    **** 	/*Configure GPIO pin Output Level */
 140:Src/main.c    **** 	HAL_GPIO_WritePin(GPIOC, GPIO_PIN_13, GPIO_PIN_SET);
 332              		.loc 1 140 0
 333 004e 1348     		ldr	r0, .L15+4
 334 0050 4FF40051 		mov	r1, #8192
 335 0054 0122     		movs	r2, #1
 336 0056 FFF7FEFF 		bl	HAL_GPIO_WritePin
 141:Src/main.c    **** 
 142:Src/main.c    **** 	/*Configure GPIO pin : PC13 */
 143:Src/main.c    **** 	GPIO_InitStruct.Pin = GPIO_PIN_13;
 337              		.loc 1 143 0
 338 005a 4FF40053 		mov	r3, #8192
 339 005e 3B61     		str	r3, [r7, #16]
 144:Src/main.c    **** 	GPIO_InitStruct.Mode = GPIO_MODE_OUTPUT_PP;
 340              		.loc 1 144 0
 341 0060 0123     		movs	r3, #1
 342 0062 7B61     		str	r3, [r7, #20]
 145:Src/main.c    **** 	GPIO_InitStruct.Pull = GPIO_NOPULL;
 343              		.loc 1 145 0
 344 0064 0023     		movs	r3, #0
 345 0066 BB61     		str	r3, [r7, #24]
 146:Src/main.c    **** 	GPIO_InitStruct.Speed = GPIO_SPEED_FREQ_LOW;
 346              		.loc 1 146 0
 347 0068 0223     		movs	r3, #2
 348 006a FB61     		str	r3, [r7, #28]
 147:Src/main.c    **** 	HAL_GPIO_Init(GPIOC, &GPIO_InitStruct);
 349              		.loc 1 147 0
 350 006c 07F11003 		add	r3, r7, #16
 351 0070 0A48     		ldr	r0, .L15+4
 352 0072 1946     		mov	r1, r3
 353 0074 FFF7FEFF 		bl	HAL_GPIO_Init
 148:Src/main.c    **** 
 149:Src/main.c    **** 	/*Configure GPIO pin : PA0 */
 150:Src/main.c    **** 	GPIO_InitStruct.Pin = GPIO_PIN_0;
 354              		.loc 1 150 0
 355 0078 0123     		movs	r3, #1
 356 007a 3B61     		str	r3, [r7, #16]
 151:Src/main.c    **** 	GPIO_InitStruct.Mode = GPIO_MODE_INPUT;
 357              		.loc 1 151 0
 358 007c 0023     		movs	r3, #0
 359 007e 7B61     		str	r3, [r7, #20]
 152:Src/main.c    **** 	GPIO_InitStruct.Pull = GPIO_PULLUP;
 360              		.loc 1 152 0
 361 0080 0123     		movs	r3, #1
 362 0082 BB61     		str	r3, [r7, #24]
 153:Src/main.c    **** 	HAL_GPIO_Init(GPIOA, &GPIO_InitStruct);
 363              		.loc 1 153 0
 364 0084 07F11003 		add	r3, r7, #16
 365 0088 0548     		ldr	r0, .L15+8
 366 008a 1946     		mov	r1, r3
 367 008c FFF7FEFF 		bl	HAL_GPIO_Init
 154:Src/main.c    **** }
ARM GAS  /tmp/ccOVengl.s 			page 10


 368              		.loc 1 154 0
 369 0090 2037     		adds	r7, r7, #32
 370              	.LCFI11:
 371              		.cfi_def_cfa_offset 8
 372 0092 BD46     		mov	sp, r7
 373              	.LCFI12:
 374              		.cfi_def_cfa_register 13
 375              		@ sp needed
 376 0094 80BD     		pop	{r7, pc}
 377              	.L16:
 378 0096 00BF     		.align	2
 379              	.L15:
 380 0098 00100240 		.word	1073876992
 381 009c 00100140 		.word	1073811456
 382 00a0 00080140 		.word	1073809408
 383              		.cfi_endproc
 384              	.LFE65:
 386              		.section	.text.MX_USART1_UART_Init,"ax",%progbits
 387              		.align	2
 388              		.thumb
 389              		.thumb_func
 391              	MX_USART1_UART_Init:
 392              	.LFB66:
 155:Src/main.c    **** 
 156:Src/main.c    **** /* USART1 init function */
 157:Src/main.c    **** static void MX_USART1_UART_Init(void)
 158:Src/main.c    **** {
 393              		.loc 1 158 0
 394              		.cfi_startproc
 395              		@ args = 0, pretend = 0, frame = 0
 396              		@ frame_needed = 1, uses_anonymous_args = 0
 397 0000 80B5     		push	{r7, lr}
 398              	.LCFI13:
 399              		.cfi_def_cfa_offset 8
 400              		.cfi_offset 7, -8
 401              		.cfi_offset 14, -4
 402 0002 00AF     		add	r7, sp, #0
 403              	.LCFI14:
 404              		.cfi_def_cfa_register 7
 159:Src/main.c    **** 
 160:Src/main.c    **** 	huart1.Instance = USART1;
 405              		.loc 1 160 0
 406 0004 114B     		ldr	r3, .L19
 407 0006 124A     		ldr	r2, .L19+4
 408 0008 1A60     		str	r2, [r3]
 161:Src/main.c    **** 	huart1.Init.BaudRate = 115200;
 409              		.loc 1 161 0
 410 000a 104B     		ldr	r3, .L19
 411 000c 4FF4E132 		mov	r2, #115200
 412 0010 5A60     		str	r2, [r3, #4]
 162:Src/main.c    **** 	huart1.Init.WordLength = UART_WORDLENGTH_8B;
 413              		.loc 1 162 0
 414 0012 0E4B     		ldr	r3, .L19
 415 0014 0022     		movs	r2, #0
 416 0016 9A60     		str	r2, [r3, #8]
 163:Src/main.c    **** 	huart1.Init.StopBits = UART_STOPBITS_1;
 417              		.loc 1 163 0
ARM GAS  /tmp/ccOVengl.s 			page 11


 418 0018 0C4B     		ldr	r3, .L19
 419 001a 0022     		movs	r2, #0
 420 001c DA60     		str	r2, [r3, #12]
 164:Src/main.c    **** 	huart1.Init.Parity = UART_PARITY_NONE;
 421              		.loc 1 164 0
 422 001e 0B4B     		ldr	r3, .L19
 423 0020 0022     		movs	r2, #0
 424 0022 1A61     		str	r2, [r3, #16]
 165:Src/main.c    **** 	huart1.Init.Mode = UART_MODE_TX_RX;
 425              		.loc 1 165 0
 426 0024 094B     		ldr	r3, .L19
 427 0026 0C22     		movs	r2, #12
 428 0028 5A61     		str	r2, [r3, #20]
 166:Src/main.c    **** 	huart1.Init.HwFlowCtl = UART_HWCONTROL_NONE;
 429              		.loc 1 166 0
 430 002a 084B     		ldr	r3, .L19
 431 002c 0022     		movs	r2, #0
 432 002e 9A61     		str	r2, [r3, #24]
 167:Src/main.c    **** 	huart1.Init.OverSampling = UART_OVERSAMPLING_16;
 433              		.loc 1 167 0
 434 0030 064B     		ldr	r3, .L19
 435 0032 0022     		movs	r2, #0
 436 0034 DA61     		str	r2, [r3, #28]
 168:Src/main.c    **** 	if (HAL_UART_Init(&huart1) != HAL_OK)
 437              		.loc 1 168 0
 438 0036 0548     		ldr	r0, .L19
 439 0038 FFF7FEFF 		bl	HAL_UART_Init
 440 003c 0346     		mov	r3, r0
 441 003e 002B     		cmp	r3, #0
 442 0040 03D0     		beq	.L17
 169:Src/main.c    **** 	{
 170:Src/main.c    **** 	_Error_Handler(__FILE__, __LINE__);
 443              		.loc 1 170 0
 444 0042 0448     		ldr	r0, .L19+8
 445 0044 AA21     		movs	r1, #170
 446 0046 FFF7FEFF 		bl	_Error_Handler
 447              	.L17:
 171:Src/main.c    **** 	}
 172:Src/main.c    **** }
 448              		.loc 1 172 0
 449 004a 80BD     		pop	{r7, pc}
 450              	.L20:
 451              		.align	2
 452              	.L19:
 453 004c 00000000 		.word	huart1
 454 0050 00380140 		.word	1073821696
 455 0054 08000000 		.word	.LC1
 456              		.cfi_endproc
 457              	.LFE66:
 459              		.section	.text.Delay2,"ax",%progbits
 460              		.align	2
 461              		.global	Delay2
 462              		.thumb
 463              		.thumb_func
 465              	Delay2:
 466              	.LFB67:
 173:Src/main.c    **** 
ARM GAS  /tmp/ccOVengl.s 			page 12


 174:Src/main.c    **** /* —Ñ—É–Ω–∫—Ü–∏—è –∑–∞–¥–µ—Ä–∂–∫–∏ */
 175:Src/main.c    **** void Delay2(uint32_t t)
 176:Src/main.c    **** {
 467              		.loc 1 176 0
 468              		.cfi_startproc
 469              		@ args = 0, pretend = 0, frame = 16
 470              		@ frame_needed = 1, uses_anonymous_args = 0
 471              		@ link register save eliminated.
 472 0000 80B4     		push	{r7}
 473              	.LCFI15:
 474              		.cfi_def_cfa_offset 4
 475              		.cfi_offset 7, -4
 476 0002 85B0     		sub	sp, sp, #20
 477              	.LCFI16:
 478              		.cfi_def_cfa_offset 24
 479 0004 00AF     		add	r7, sp, #0
 480              	.LCFI17:
 481              		.cfi_def_cfa_register 7
 482 0006 7860     		str	r0, [r7, #4]
 483              	.LBB5:
 177:Src/main.c    ****   for (uint32_t i = 0; i < t; i++)
 484              		.loc 1 177 0
 485 0008 0023     		movs	r3, #0
 486 000a FB60     		str	r3, [r7, #12]
 487 000c 03E0     		b	.L22
 488              	.L23:
 178:Src/main.c    ****   {
 179:Src/main.c    ****     asm("NOP");
 489              		.loc 1 179 0 discriminator 3
 490              	@ 179 "Src/main.c" 1
 491 000e 00BF     		NOP
 492              	@ 0 "" 2
 177:Src/main.c    ****   for (uint32_t i = 0; i < t; i++)
 493              		.loc 1 177 0 discriminator 3
 494              		.thumb
 495 0010 FB68     		ldr	r3, [r7, #12]
 496 0012 0133     		adds	r3, r3, #1
 497 0014 FB60     		str	r3, [r7, #12]
 498              	.L22:
 177:Src/main.c    ****   for (uint32_t i = 0; i < t; i++)
 499              		.loc 1 177 0 is_stmt 0 discriminator 1
 500 0016 FA68     		ldr	r2, [r7, #12]
 501 0018 7B68     		ldr	r3, [r7, #4]
 502 001a 9A42     		cmp	r2, r3
 503 001c F7D3     		bcc	.L23
 504              	.LBE5:
 180:Src/main.c    ****   }
 181:Src/main.c    **** }
 505              		.loc 1 181 0 is_stmt 1
 506 001e 1437     		adds	r7, r7, #20
 507              	.LCFI18:
 508              		.cfi_def_cfa_offset 4
 509 0020 BD46     		mov	sp, r7
 510              	.LCFI19:
 511              		.cfi_def_cfa_register 13
 512              		@ sp needed
 513 0022 5DF8047B 		ldr	r7, [sp], #4
ARM GAS  /tmp/ccOVengl.s 			page 13


 514              	.LCFI20:
 515              		.cfi_restore 7
 516              		.cfi_def_cfa_offset 0
 517 0026 7047     		bx	lr
 518              		.cfi_endproc
 519              	.LFE67:
 521              		.section	.text.delay_ms,"ax",%progbits
 522              		.align	2
 523              		.global	delay_ms
 524              		.thumb
 525              		.thumb_func
 527              	delay_ms:
 528              	.LFB68:
 182:Src/main.c    **** void delay_ms(uint32_t milliseconds)
 183:Src/main.c    **** {
 529              		.loc 1 183 0
 530              		.cfi_startproc
 531              		@ args = 0, pretend = 0, frame = 16
 532              		@ frame_needed = 1, uses_anonymous_args = 0
 533              		@ link register save eliminated.
 534 0000 80B4     		push	{r7}
 535              	.LCFI21:
 536              		.cfi_def_cfa_offset 4
 537              		.cfi_offset 7, -4
 538 0002 85B0     		sub	sp, sp, #20
 539              	.LCFI22:
 540              		.cfi_def_cfa_offset 24
 541 0004 00AF     		add	r7, sp, #0
 542              	.LCFI23:
 543              		.cfi_def_cfa_register 7
 544 0006 7860     		str	r0, [r7, #4]
 184:Src/main.c    **** 	SysTick->CTRL |= SysTick_CTRL_ENABLE_Msk;	// –ó–∞–ø—É—Å–∫ —Å–∏—Å—Ç–µ–º–Ω–æ–≥–æ —Å—á–µ—Ç—á–∏–∫–∞
 545              		.loc 1 184 0
 546 0008 0D4A     		ldr	r2, .L26
 547 000a 0D4B     		ldr	r3, .L26
 548 000c 1B68     		ldr	r3, [r3]
 549 000e 43F00103 		orr	r3, r3, #1
 550 0012 1360     		str	r3, [r2]
 185:Src/main.c    **** 	uint32_t start = ticks_delay;
 551              		.loc 1 185 0
 552 0014 0B4B     		ldr	r3, .L26+4
 553 0016 1B68     		ldr	r3, [r3]
 554 0018 FB60     		str	r3, [r7, #12]
 186:Src/main.c    **** 	while ((ticks_delay - start) < milliseconds);
 555              		.loc 1 186 0
 556 001a 00BF     		nop
 557              	.L25:
 558              		.loc 1 186 0 is_stmt 0 discriminator 1
 559 001c 094B     		ldr	r3, .L26+4
 560 001e 1A68     		ldr	r2, [r3]
 561 0020 FB68     		ldr	r3, [r7, #12]
 562 0022 D21A     		subs	r2, r2, r3
 563 0024 7B68     		ldr	r3, [r7, #4]
 564 0026 9A42     		cmp	r2, r3
 565 0028 F8D3     		bcc	.L25
 187:Src/main.c    **** 	SysTick->CTRL ^= SysTick_CTRL_ENABLE_Msk;	// –û—Å—Ç–∞–Ω–æ–≤–∫–∞ —Å–∏—Å—Ç–µ–º–Ω–æ–≥–æ —Å—á–µ—Ç—á–∏–
 566              		.loc 1 187 0 is_stmt 1
ARM GAS  /tmp/ccOVengl.s 			page 14


 567 002a 054A     		ldr	r2, .L26
 568 002c 044B     		ldr	r3, .L26
 569 002e 1B68     		ldr	r3, [r3]
 570 0030 83F00103 		eor	r3, r3, #1
 571 0034 1360     		str	r3, [r2]
 188:Src/main.c    **** }
 572              		.loc 1 188 0
 573 0036 1437     		adds	r7, r7, #20
 574              	.LCFI24:
 575              		.cfi_def_cfa_offset 4
 576 0038 BD46     		mov	sp, r7
 577              	.LCFI25:
 578              		.cfi_def_cfa_register 13
 579              		@ sp needed
 580 003a 5DF8047B 		ldr	r7, [sp], #4
 581              	.LCFI26:
 582              		.cfi_restore 7
 583              		.cfi_def_cfa_offset 0
 584 003e 7047     		bx	lr
 585              	.L27:
 586              		.align	2
 587              	.L26:
 588 0040 10E000E0 		.word	-536813552
 589 0044 00000000 		.word	ticks_delay
 590              		.cfi_endproc
 591              	.LFE68:
 593              		.section	.text._Error_Handler,"ax",%progbits
 594              		.align	2
 595              		.global	_Error_Handler
 596              		.thumb
 597              		.thumb_func
 599              	_Error_Handler:
 600              	.LFB69:
 189:Src/main.c    **** 
 190:Src/main.c    **** 
 191:Src/main.c    **** /**
 192:Src/main.c    ****   * @brief  This function is executed in case of error occurrence.
 193:Src/main.c    ****   * @param  file: The file name as string.
 194:Src/main.c    ****   * @param  line: The line in file as a number.
 195:Src/main.c    ****   * @retval None
 196:Src/main.c    ****   */
 197:Src/main.c    **** void _Error_Handler(char *file, int line)
 198:Src/main.c    **** {
 601              		.loc 1 198 0
 602              		.cfi_startproc
 603              		@ args = 0, pretend = 0, frame = 8
 604              		@ frame_needed = 1, uses_anonymous_args = 0
 605              		@ link register save eliminated.
 606 0000 80B4     		push	{r7}
 607              	.LCFI27:
 608              		.cfi_def_cfa_offset 4
 609              		.cfi_offset 7, -4
 610 0002 83B0     		sub	sp, sp, #12
 611              	.LCFI28:
 612              		.cfi_def_cfa_offset 16
 613 0004 00AF     		add	r7, sp, #0
 614              	.LCFI29:
ARM GAS  /tmp/ccOVengl.s 			page 15


 615              		.cfi_def_cfa_register 7
 616 0006 7860     		str	r0, [r7, #4]
 617 0008 3960     		str	r1, [r7]
 618              	.L29:
 199:Src/main.c    ****   /* USER CODE BEGIN Error_Handler_Debug */
 200:Src/main.c    ****   /* User can add his own implementation to report the HAL error return state */
 201:Src/main.c    ****   while(1)
 202:Src/main.c    ****   {
 203:Src/main.c    ****   }
 619              		.loc 1 203 0 discriminator 1
 620 000a FEE7     		b	.L29
 621              		.cfi_endproc
 622              	.LFE69:
 624              		.text
 625              	.Letext0:
 626              		.file 2 "/usr/include/newlib/machine/_default_types.h"
 627              		.file 3 "/usr/include/newlib/sys/_stdint.h"
 628              		.file 4 "Drivers/CMSIS/Include/core_cm3.h"
 629              		.file 5 "Drivers/CMSIS/Device/ST/STM32F1xx/Include/stm32f103xb.h"
 630              		.file 6 "Drivers/STM32F1xx_HAL_Driver/Inc/stm32f1xx_hal_def.h"
 631              		.file 7 "Drivers/STM32F1xx_HAL_Driver/Inc/stm32f1xx_hal_rcc.h"
 632              		.file 8 "Drivers/STM32F1xx_HAL_Driver/Inc/stm32f1xx_hal_rcc_ex.h"
 633              		.file 9 "Drivers/STM32F1xx_HAL_Driver/Inc/stm32f1xx_hal_gpio.h"
 634              		.file 10 "Drivers/STM32F1xx_HAL_Driver/Inc/stm32f1xx_hal_dma.h"
 635              		.file 11 "Drivers/STM32F1xx_HAL_Driver/Inc/stm32f1xx_hal_uart.h"
ARM GAS  /tmp/ccOVengl.s 			page 16


DEFINED SYMBOLS
                            *ABS*:0000000000000000 main.c
     /tmp/ccOVengl.s:22     .data.click0:0000000000000000 click0
     /tmp/ccOVengl.s:28     .data.k:0000000000000000 k
     /tmp/ccOVengl.s:35     .bss.ticks_delay:0000000000000000 ticks_delay
     /tmp/ccOVengl.s:32     .bss.ticks_delay:0000000000000000 $d
                            *COM*:0000000000000040 huart1
     /tmp/ccOVengl.s:39     .rodata:0000000000000000 $d
     /tmp/ccOVengl.s:43     .text.main:0000000000000000 $t
     /tmp/ccOVengl.s:48     .text.main:0000000000000000 main
     /tmp/ccOVengl.s:160    .text.SystemClock_Config:0000000000000000 SystemClock_Config
     /tmp/ccOVengl.s:276    .text.MX_GPIO_Init:0000000000000000 MX_GPIO_Init
     /tmp/ccOVengl.s:391    .text.MX_USART1_UART_Init:0000000000000000 MX_USART1_UART_Init
     /tmp/ccOVengl.s:143    .text.main:0000000000000084 $d
     /tmp/ccOVengl.s:155    .text.SystemClock_Config:0000000000000000 $t
     /tmp/ccOVengl.s:599    .text._Error_Handler:0000000000000000 _Error_Handler
     /tmp/ccOVengl.s:266    .text.SystemClock_Config:0000000000000098 $d
     /tmp/ccOVengl.s:272    .text.MX_GPIO_Init:0000000000000000 $t
     /tmp/ccOVengl.s:380    .text.MX_GPIO_Init:0000000000000098 $d
     /tmp/ccOVengl.s:387    .text.MX_USART1_UART_Init:0000000000000000 $t
     /tmp/ccOVengl.s:453    .text.MX_USART1_UART_Init:000000000000004c $d
     /tmp/ccOVengl.s:460    .text.Delay2:0000000000000000 $t
     /tmp/ccOVengl.s:465    .text.Delay2:0000000000000000 Delay2
     /tmp/ccOVengl.s:522    .text.delay_ms:0000000000000000 $t
     /tmp/ccOVengl.s:527    .text.delay_ms:0000000000000000 delay_ms
     /tmp/ccOVengl.s:588    .text.delay_ms:0000000000000040 $d
     /tmp/ccOVengl.s:594    .text._Error_Handler:0000000000000000 $t
                     .debug_frame:0000000000000010 $d

UNDEFINED SYMBOLS
HAL_Init
HAL_UART_Transmit
HAL_UART_Receive_IT
HAL_RCC_OscConfig
HAL_RCC_ClockConfig
HAL_RCC_GetHCLKFreq
HAL_SYSTICK_Config
HAL_SYSTICK_CLKSourceConfig
HAL_NVIC_SetPriority
HAL_GPIO_WritePin
HAL_GPIO_Init
HAL_UART_Init
